; Function Attrs: nounwind uwtable
define internal void @_toggle_module_visibility(ptr readnone captures(none) %0, ptr noundef %1) #0 {
  %3 = tail call i32 @dt_lib_is_visible(ptr noundef %1) #18
  %.not = icmp eq i32 %3, 0
  %4 = zext i1 %.not to i32
  tail call void @dt_lib_set_visible(ptr noundef %1, i32 noundef %4) #18
  %5 = load ptr, ptr getelementptr inbounds nuw (i8, ptr @darktable, i64 80), align 8, !tbaa !144
  %6 = tail call ptr @dt_view_manager_get_current_view(ptr noundef %5) #18
  %7 = tail call i32 @dt_view_manager_switch_by_view(ptr noundef %5, ptr noundef %6) #18
  ret void
}